; Function Attrs: mustprogress nounwind uwtable
define internal void @_ZN7openvdb5v11_02io12_GLOBAL__N_111StreamStateD2Ev(ptr nocapture noundef nonnull readonly align 4 dereferenceable(44) %this) unnamed_addr #8 align 2 personality ptr @__gxx_personality_v0 {
entry:
  %vtable = load ptr, ptr @_ZSt4cout, align 8
  %vbase.offset.ptr = getelementptr i8, ptr %vtable, i64 -24
  %vbase.offset = load i64, ptr %vbase.offset.ptr, align 8
  %add.ptr = getelementptr inbounds i8, ptr @_ZSt4cout, i64 %vbase.offset
  %0 = load i32, ptr %this, align 4
  %_M_word_size.i = getelementptr inbounds i8, ptr %add.ptr, i64 192
  %1 = load i32, ptr %_M_word_size.i, align 8
  %cmp.i = icmp ugt i32 %1, %0
  br i1 %cmp.i, label %cond.true.i, label %cond.false.i

cond.true.i:                                      ; preds = %entry
  %_M_word.i = getelementptr inbounds i8, ptr %add.ptr, i64 200
  %2 = load ptr, ptr %_M_word.i, align 8
  %idxprom.i = sext i32 %0 to i64
  %arrayidx.i = getelementptr inbounds %"struct.std::ios_base::_Words", ptr %2, i64 %idxprom.i
  br label %invoke.cont

cond.false.i:                                     ; preds = %entry
  %call.i1 = invoke noundef nonnull align 8 dereferenceable(16) ptr @_ZNSt8ios_base13_M_grow_wordsEib(ptr noundef nonnull align 8 dereferenceable(216) %add.ptr, i32 noundef %0, i1 noundef zeroext true)
          to label %cond.false.i.invoke.cont_crit_edge unwind label %terminate.lpad

cond.false.i.invoke.cont_crit_edge:               ; preds = %cond.false.i
  %vtable2.pre = load ptr, ptr @_ZSt4cout, align 8
  br label %invoke.cont

invoke.cont:                                      ; preds = %cond.false.i.invoke.cont_crit_edge, %cond.true.i
  %vtable2 = phi ptr [ %vtable, %cond.true.i ], [ %vtable2.pre, %cond.false.i.invoke.cont_crit_edge ]
  %cond-lvalue.i = phi ptr [ %arrayidx.i, %cond.true.i ], [ %call.i1, %cond.false.i.invoke.cont_crit_edge ]
  %_M_iword.i = getelementptr inbounds i8, ptr %cond-lvalue.i, i64 8
  store i64 0, ptr %_M_iword.i, align 8
  %vbase.offset.ptr3 = getelementptr i8, ptr %vtable2, i64 -24
  %vbase.offset4 = load i64, ptr %vbase.offset.ptr3, align 8
  %add.ptr5 = getelementptr inbounds i8, ptr @_ZSt4cout, i64 %vbase.offset4
  %3 = load i32, ptr %this, align 4
  %_M_word_size.i2 = getelementptr inbounds i8, ptr %add.ptr5, i64 192
  %4 = load i32, ptr %_M_word_size.i2, align 8
  %cmp.i3 = icmp ugt i32 %4, %3
  br i1 %cmp.i3, label %cond.true.i6, label %cond.false.i4

cond.true.i6:                                     ; preds = %invoke.cont
  %_M_word.i7 = getelementptr inbounds i8, ptr %add.ptr5, i64 200
  %5 = load ptr, ptr %_M_word.i7, align 8
  %idxprom.i8 = sext i32 %3 to i64
  %arrayidx.i9 = getelementptr inbounds %"struct.std::ios_base::_Words", ptr %5, i64 %idxprom.i8
  br label %invoke.cont7

cond.false.i4:                                    ; preds = %invoke.cont
  %call.i11 = invoke noundef nonnull align 8 dereferenceable(16) ptr @_ZNSt8ios_base13_M_grow_wordsEib(ptr noundef nonnull align 8 dereferenceable(216) %add.ptr5, i32 noundef %3, i1 noundef zeroext false)
          to label %invoke.cont7 unwind label %terminate.lpad

invoke.cont7:                                     ; preds = %cond.true.i6, %cond.false.i4
  %cond-lvalue.i5 = phi ptr [ %arrayidx.i9, %cond.true.i6 ], [ %call.i11, %cond.false.i4 ]
  store ptr null, ptr %cond-lvalue.i5, align 8
  ret void

terminate.lpad:                                   ; preds = %cond.false.i4, %cond.false.i
  %6 = landingpad { ptr, i32 }
          catch ptr null
  %7 = extractvalue { ptr, i32 } %6, 0
  tail call void @__clang_call_terminate(ptr %7) #37
  unreachable
}